target datalayout = "e-m:e-p270:32:32-p271:32:32-p272:64:64-i64:64-i128:128-f80:128-n8:16:32:64-S128"
target triple = "x86_64-pc-linux-gnu"

%struct.ResultRelInfo = type { i32, i32, ptr, i32, ptr, ptr, i16, ptr, i8, ptr, ptr, ptr, i8, i8, ptr, ptr, ptr, ptr, ptr, ptr, ptr, ptr, ptr, ptr, i8, i32, i32, i32, ptr, ptr, ptr, ptr, ptr, ptr, ptr, i32, i32, ptr, ptr, ptr, ptr, [3 x ptr], ptr, ptr, ptr, i8, ptr, i8, ptr, ptr, ptr, ptr }
%struct.ItemPointerData = type { %struct.BlockIdData, i16 }
%struct.BlockIdData = type { i16, i16 }
%struct.ModifyTableState = type { %struct.PlanState, i32, i8, i8, i32, ptr, ptr, %struct.EPQState, i8, i32, i32, i32, ptr, ptr, ptr, ptr, ptr, i32, ptr, ptr, double, double, double, ptr, ptr, ptr }
%struct.PlanState = type { i32, ptr, ptr, ptr, ptr, ptr, ptr, ptr, ptr, ptr, ptr, ptr, ptr, ptr, ptr, ptr, ptr, ptr, i8, ptr, ptr, ptr, ptr, ptr, i8, i8, i8, i8, i8, i8, i8, i8 }
%struct.EPQState = type { ptr, i32, ptr, ptr, ptr, ptr, ptr, ptr, ptr, ptr, ptr, ptr, ptr }
%struct.ModifyTableContext = type { ptr, ptr, ptr, ptr, %struct.TM_FailureData, ptr, ptr }
%struct.TM_FailureData = type { %struct.ItemPointerData, i32, i32, i8 }
%struct.UpdateContext = type { i8, i32, i32 }

; Function Attrs: nounwind uwtable
define internal void @ExecUpdateEpilogue(ptr noundef %0, ptr noundef %1, ptr noundef %2, ptr noundef %3, ptr noundef %4, ptr noundef %5) #0 {
  %7 = alloca ptr, align 8
  %8 = alloca ptr, align 8
  %9 = alloca ptr, align 8
  %10 = alloca ptr, align 8
  %11 = alloca ptr, align 8
  %12 = alloca ptr, align 8
  %13 = alloca ptr, align 8
  %14 = alloca ptr, align 8
  store ptr %0, ptr %7, align 8
  store ptr %1, ptr %8, align 8
  store ptr %2, ptr %9, align 8
  store ptr %3, ptr %10, align 8
  store ptr %4, ptr %11, align 8
  store ptr %5, ptr %12, align 8
  call void @llvm.lifetime.start.p0(i64 8, ptr %13) #8
  %15 = load ptr, ptr %7, align 8
  %16 = getelementptr inbounds nuw %struct.ModifyTableContext, ptr %15, i32 0, i32 0
  %17 = load ptr, ptr %16, align 8
  store ptr %17, ptr %13, align 8
  call void @llvm.lifetime.start.p0(i64 8, ptr %14) #8
  store ptr null, ptr %14, align 8
  %18 = load ptr, ptr %9, align 8
  %19 = getelementptr inbounds nuw %struct.ResultRelInfo, ptr %18, i32 0, i32 3
  %20 = load i32, ptr %19, align 8
  %21 = icmp sgt i32 %20, 0
  br i1 %21, label %22, label %38

22:                                               ; preds = %6
  %23 = load ptr, ptr %8, align 8
  %24 = getelementptr inbounds nuw %struct.UpdateContext, ptr %23, i32 0, i32 1
  %25 = load i32, ptr %24, align 4
  %26 = icmp ne i32 %25, 0
  br i1 %26, label %27, label %38

27:                                               ; preds = %22
  %28 = load ptr, ptr %9, align 8
  %29 = load ptr, ptr %12, align 8
  %30 = load ptr, ptr %7, align 8
  %31 = getelementptr inbounds nuw %struct.ModifyTableContext, ptr %30, i32 0, i32 2
  %32 = load ptr, ptr %31, align 8
  %33 = load ptr, ptr %8, align 8
  %34 = getelementptr inbounds nuw %struct.UpdateContext, ptr %33, i32 0, i32 1
  %35 = load i32, ptr %34, align 4
  %36 = icmp eq i32 %35, 2
  %37 = call ptr @ExecInsertIndexTuples(ptr noundef %28, ptr noundef %29, ptr noundef %32, i1 noundef zeroext true, i1 noundef zeroext false, ptr noundef null, ptr noundef null, i1 noundef zeroext %36)
  store ptr %37, ptr %14, align 8
  br label %38

38:                                               ; preds = %27, %22, %6
  %39 = load ptr, ptr %7, align 8
  %40 = getelementptr inbounds nuw %struct.ModifyTableContext, ptr %39, i32 0, i32 2
  %41 = load ptr, ptr %40, align 8
  %42 = load ptr, ptr %9, align 8
  %43 = load ptr, ptr %10, align 8
  %44 = load ptr, ptr %11, align 8
  %45 = load ptr, ptr %12, align 8
  %46 = load ptr, ptr %14, align 8
  %47 = load ptr, ptr %13, align 8
  %48 = getelementptr inbounds nuw %struct.ModifyTableState, ptr %47, i32 0, i32 1
  %49 = load i32, ptr %48, align 8
  %50 = icmp eq i32 %49, 3
  br i1 %50, label %51, label %55

51:                                               ; preds = %38
  %52 = load ptr, ptr %13, align 8
  %53 = getelementptr inbounds nuw %struct.ModifyTableState, ptr %52, i32 0, i32 16
  %54 = load ptr, ptr %53, align 8
  br label %59

55:                                               ; preds = %38
  %56 = load ptr, ptr %13, align 8
  %57 = getelementptr inbounds nuw %struct.ModifyTableState, ptr %56, i32 0, i32 15
  %58 = load ptr, ptr %57, align 8
  br label %59

59:                                               ; preds = %55, %51
  %60 = phi ptr [ %54, %51 ], [ %58, %55 ]
  call void @ExecARUpdateTriggers(ptr noundef %41, ptr noundef %42, ptr noundef null, ptr noundef null, ptr noundef %43, ptr noundef %44, ptr noundef %45, ptr noundef %46, ptr noundef %60, i1 noundef zeroext false)
  %61 = load ptr, ptr %14, align 8
  call void @list_free(ptr noundef %61)
  %62 = load ptr, ptr %9, align 8
  %63 = getelementptr inbounds nuw %struct.ResultRelInfo, ptr %62, i32 0, i32 30
  %64 = load ptr, ptr %63, align 8
  %65 = icmp ne ptr %64, null
  br i1 %65, label %66, label %72

66:                                               ; preds = %59
  %67 = load ptr, ptr %9, align 8
  %68 = load ptr, ptr %12, align 8
  %69 = load ptr, ptr %7, align 8
  %70 = getelementptr inbounds nuw %struct.ModifyTableContext, ptr %69, i32 0, i32 2
  %71 = load ptr, ptr %70, align 8
  call void @ExecWithCheckOptions(i32 noundef 0, ptr noundef %67, ptr noundef %68, ptr noundef %71)
  br label %72

72:                                               ; preds = %66, %59
  call void @llvm.lifetime.end.p0(i64 8, ptr %14) #8
  call void @llvm.lifetime.end.p0(i64 8, ptr %13) #8
  ret void
}