; Function Attrs: nounwind uwtable
define internal fastcc void @ExecUpdateEpilogue(ptr noundef nonnull readonly captures(none) %0, i32 %.4.val, ptr noundef %1, ptr noundef %2, ptr noundef %3, ptr noundef %4) unnamed_addr #0 {
  %6 = load ptr, ptr %0, align 8
  %7 = getelementptr inbounds nuw i8, ptr %1, i64 16
  %8 = load i32, ptr %7, align 8
  %9 = icmp slt i32 %8, 1
  %.not = icmp eq i32 %.4.val, 0
  %or.cond = select i1 %9, i1 true, i1 %.not
  br i1 %or.cond, label %15, label %10

10:                                               ; preds = %5
  %11 = getelementptr inbounds nuw i8, ptr %0, i64 16
  %12 = load ptr, ptr %11, align 8
  %13 = icmp eq i32 %.4.val, 2
  %14 = tail call ptr @ExecInsertIndexTuples(ptr noundef nonnull %1, ptr noundef %4, ptr noundef %12, i1 noundef zeroext true, i1 noundef zeroext false, ptr noundef null, ptr noundef null, i1 noundef zeroext %13) #9
  br label %15

15:                                               ; preds = %10, %5
  %.0 = phi ptr [ %14, %10 ], [ null, %5 ]
  %16 = getelementptr inbounds nuw i8, ptr %0, i64 16
  %17 = load ptr, ptr %16, align 8
  %18 = getelementptr inbounds nuw i8, ptr %6, i64 200
  %19 = load i32, ptr %18, align 8
  %20 = icmp eq i32 %19, 3
  %.in.v = select i1 %20, i64 384, i64 376
  %.in = getelementptr inbounds nuw i8, ptr %6, i64 %.in.v
  %21 = load ptr, ptr %.in, align 8
  tail call void @ExecARUpdateTriggers(ptr noundef %17, ptr noundef nonnull %1, ptr noundef null, ptr noundef null, ptr noundef %2, ptr noundef %3, ptr noundef %4, ptr noundef %.0, ptr noundef %21, i1 noundef zeroext false) #9
  tail call void @list_free(ptr noundef %.0) #9
  %22 = getelementptr inbounds nuw i8, ptr %1, i64 208
  %23 = load ptr, ptr %22, align 8
  %.not22 = icmp eq ptr %23, null
  br i1 %.not22, label %26, label %24

24:                                               ; preds = %15
  %25 = load ptr, ptr %16, align 8
  tail call void @ExecWithCheckOptions(i32 noundef 0, ptr noundef nonnull %1, ptr noundef %4, ptr noundef %25) #9
  br label %26

26:                                               ; preds = %24, %15
  ret void
}